(dp0
S'isShellCmd'
p1
I00
sS'cmd'
p2
(lp3
S'/home/eblake/Documents/manta/SV_finder_manta/manta/libexec/GetAlignmentStats'
p4
aS'--ref'
p5
aS'/home/eblake/Documents/manta/SV_finder_manta/Data/reference_genome/Homo_sapiens_assembly19.COST16011_region.fa'
p6
aS'--output-file'
p7
aS'/home/eblake/Documents/manta/SV_finder_manta/MantaWorkflow/workspace/alignmentStats.xml.tmpdir/alignmentStats.xml.000.xml'
p8
aS'--align-file'
p9
aS'/home/eblake/Documents/manta/SV_finder_manta/Data/Data_to_analysis/G15512.HCC1954.1.COST16011_region.bam'
p10
asS'errFile'
p11
S'/home/eblake/Documents/manta/SV_finder_manta/MantaWorkflow/workspace/pyflow.data/logs/pyflow_tasks_stderr_log.txt'
p12
sS'outFile'
p13
S'/home/eblake/Documents/manta/SV_finder_manta/MantaWorkflow/workspace/pyflow.data/logs/pyflow_tasks_stdout_log.txt'
p14
sS'env'
p15
NsS'nCores'
p16
I1
sS'cwd'
p17
S''
p18
s.