(dp0
S'isShellCmd'
p1
I00
sS'cmd'
p2
(lp3
S'/home/eblake/anaconda3/envs/py27_env/bin/python2'
p4
aS'/home/eblake/Documents/manta/SV_finder_manta/manta/libexec/sortEdgeLogs.py'
p5
aS'-f'
p6
aS'/home/eblake/Documents/manta/SV_finder_manta/MantaWorkflow/workspace/svHyGen/list.edgeRuntimeLog.txt'
p7
aS'-o'
p8
aS'/home/eblake/Documents/manta/SV_finder_manta/MantaWorkflow/workspace/edgeRuntimeLog.txt'
p9
asS'errFile'
p10
S'/home/eblake/Documents/manta/SV_finder_manta/MantaWorkflow/workspace/pyflow.data/logs/pyflow_tasks_stderr_log.txt'
p11
sS'outFile'
p12
S'/home/eblake/Documents/manta/SV_finder_manta/MantaWorkflow/workspace/pyflow.data/logs/pyflow_tasks_stdout_log.txt'
p13
sS'env'
p14
NsS'nCores'
p15
I1
sS'cwd'
p16
S''
p17
s.