(dp0
S'isShellCmd'
p1
I00
sS'cmd'
p2
(lp3
S'/home/eblake/Documents/manta/SV_finder_manta/manta/libexec/cat.py'
p4
aS'--output'
p5
aS'/home/eblake/Documents/manta/SV_finder_manta/MantaWorkflow/workspace/chromDepth.txt.tmpdir/chromDepth.txt.000.txt'
p6
aS'/home/eblake/Documents/manta/SV_finder_manta/MantaWorkflow/workspace/chromDepth.txt.tmpdir/chromDepth.txt.000.txt.tmpdir/chromDepth.txt.000.txt_000_8'
p7
aS'/home/eblake/Documents/manta/SV_finder_manta/MantaWorkflow/workspace/chromDepth.txt.tmpdir/chromDepth.txt.000.txt.tmpdir/chromDepth.txt.000.txt_001_11'
p8
asS'errFile'
p9
S'/home/eblake/Documents/manta/SV_finder_manta/MantaWorkflow/workspace/pyflow.data/logs/pyflow_tasks_stderr_log.txt'
p10
sS'outFile'
p11
S'/home/eblake/Documents/manta/SV_finder_manta/MantaWorkflow/workspace/pyflow.data/logs/pyflow_tasks_stdout_log.txt'
p12
sS'env'
p13
NsS'nCores'
p14
I1
sS'cwd'
p15
S''
p16
s.