(dp0
S'isShellCmd'
p1
I01
sS'cmd'
p2
S'"/home/eblake/anaconda3/envs/py27_env/bin/python2" "/home/eblake/Documents/manta/SV_finder_manta/manta/libexec/sortVcf.py" -f "/home/eblake/Documents/manta/SV_finder_manta/MantaWorkflow/workspace/svHyGen/list.sortDiploidSV.txt" > "/home/eblake/Documents/manta/SV_finder_manta/MantaWorkflow/workspace/svHyGen/diploidSV.vcf.temp" && "/home/eblake/anaconda3/envs/py27_env/bin/python2" "/home/eblake/Documents/manta/SV_finder_manta/manta/libexec/ploidyFilter.py" "/home/eblake/Documents/manta/SV_finder_manta/MantaWorkflow/workspace/svHyGen/diploidSV.vcf.temp" | "/home/eblake/Documents/manta/SV_finder_manta/manta/libexec/bgzip" -c > "/home/eblake/Documents/manta/SV_finder_manta/MantaWorkflow/results/variants/diploidSV.vcf.gz" && rm -f "/home/eblake/Documents/manta/SV_finder_manta/MantaWorkflow/workspace/svHyGen/diploidSV.vcf.temp"'
p3
sS'errFile'
p4
S'/home/eblake/Documents/manta/SV_finder_manta/MantaWorkflow/workspace/pyflow.data/logs/pyflow_tasks_stderr_log.txt'
p5
sS'outFile'
p6
S'/home/eblake/Documents/manta/SV_finder_manta/MantaWorkflow/workspace/pyflow.data/logs/pyflow_tasks_stdout_log.txt'
p7
sS'env'
p8
NsS'nCores'
p9
I1
sS'cwd'
p10
S''
p11
s.