(dp0
S'isShellCmd'
p1
I00
sS'cmd'
p2
(lp3
S'/home/eblake/Documents/manta/SV_finder_manta/manta/libexec/GetChromDepth'
p4
aS'--ref'
p5
aS'/home/eblake/Documents/manta/SV_finder_manta/Data/reference_genome/Homo_sapiens_assembly19.COST16011_region.fa'
p6
aS'--align-file'
p7
aS'/home/eblake/Documents/manta/SV_finder_manta/Data/Data_to_analysis/G15512.HCC1954.1.COST16011_region.bam'
p8
aS'--output'
p9
aS'/home/eblake/Documents/manta/SV_finder_manta/MantaWorkflow/workspace/chromDepth.txt.tmpdir/chromDepth.txt.000.txt.tmpdir/chromDepth.txt.000.txt_000_8'
p10
aS'--chrom'
p11
aS'8'
p12
asS'errFile'
p13
S'/home/eblake/Documents/manta/SV_finder_manta/MantaWorkflow/workspace/pyflow.data/logs/pyflow_tasks_stderr_log.txt'
p14
sS'outFile'
p15
S'/home/eblake/Documents/manta/SV_finder_manta/MantaWorkflow/workspace/pyflow.data/logs/pyflow_tasks_stdout_log.txt'
p16
sS'env'
p17
NsS'nCores'
p18
I1
sS'cwd'
p19
S''
p20
s.