(dp0
S'isShellCmd'
p1
I01
sS'cmd'
p2
S'"/home/eblake/Documents/manta/SV_finder_manta/manta/libexec/bgzip" -dc "/home/eblake/Documents/manta/SV_finder_manta/MantaWorkflow/results/variants/candidateSV.vcf.gz" | "/home/eblake/anaconda3/envs/py27_env/bin/python2" "/home/eblake/Documents/manta/SV_finder_manta/manta/libexec/extractSmallIndelCandidates.py" --maxSize 49 | "/home/eblake/Documents/manta/SV_finder_manta/manta/libexec/bgzip" -c > "/home/eblake/Documents/manta/SV_finder_manta/MantaWorkflow/results/variants/candidateSmallIndels.vcf.gz"'
p3
sS'errFile'
p4
S'/home/eblake/Documents/manta/SV_finder_manta/MantaWorkflow/workspace/pyflow.data/logs/pyflow_tasks_stderr_log.txt'
p5
sS'outFile'
p6
S'/home/eblake/Documents/manta/SV_finder_manta/MantaWorkflow/workspace/pyflow.data/logs/pyflow_tasks_stdout_log.txt'
p7
sS'env'
p8
NsS'nCores'
p9
I1
sS'cwd'
p10
S''
p11
s.