(dp0
S'isShellCmd'
p1
I01
sS'cmd'
p2
S'"/home/eblake/anaconda3/envs/py27_env/bin/python2" "/home/eblake/Documents/manta/SV_finder_manta/manta/libexec/vcfCmdlineSwapper.py" "/home/eblake/Documents/manta/SV_finder_manta/manta/bin/configManta.py --config /home/eblake/Documents/manta/SV_finder_manta/manta/bin/configManta.py.ini --bam /home/eblake/Documents/manta/SV_finder_manta/Data/Data_to_analysis/G15512.HCC1954.1.COST16011_region.bam" < "/home/eblake/Documents/manta/SV_finder_manta/MantaWorkflow/workspace/svHyGen/diploidSV.0000.vcf" > "/home/eblake/Documents/manta/SV_finder_manta/MantaWorkflow/workspace/svHyGen/diploidSV.0000.vcf.reheader.tmp" && mv "/home/eblake/Documents/manta/SV_finder_manta/MantaWorkflow/workspace/svHyGen/diploidSV.0000.vcf.reheader.tmp" "/home/eblake/Documents/manta/SV_finder_manta/MantaWorkflow/workspace/svHyGen/diploidSV.0000.vcf"'
p3
sS'errFile'
p4
S'/home/eblake/Documents/manta/SV_finder_manta/MantaWorkflow/workspace/pyflow.data/logs/pyflow_tasks_stderr_log.txt'
p5
sS'outFile'
p6
S'/home/eblake/Documents/manta/SV_finder_manta/MantaWorkflow/workspace/pyflow.data/logs/pyflow_tasks_stdout_log.txt'
p7
sS'env'
p8
NsS'nCores'
p9
I1
sS'cwd'
p10
S''
p11
s.