(dp0
S'isShellCmd'
p1
I00
sS'cmd'
p2
(lp3
S'/home/eblake/Documents/manta/SV_finder_manta/manta/libexec/GenerateSVCandidates'
p4
aS'--threads'
p5
aS'8'
p6
aS'--align-stats'
p7
aS'/home/eblake/Documents/manta/SV_finder_manta/MantaWorkflow/workspace/alignmentStats.xml'
p8
aS'--graph-file'
p9
aS'/home/eblake/Documents/manta/SV_finder_manta/MantaWorkflow/workspace/svLocusGraph.bin'
p10
aS'--bin-index'
p11
aS'0'
p12
aS'--bin-count'
p13
aS'1'
p14
aS'--max-edge-count'
p15
aS'10'
p16
aS'--min-candidate-sv-size'
p17
aS'8'
p18
aS'--min-candidate-spanning-count'
p19
aS'3'
p20
aS'--min-scored-sv-size'
p21
aS'50'
p22
aS'--ref'
p23
aS'/home/eblake/Documents/manta/SV_finder_manta/Data/reference_genome/Homo_sapiens_assembly19.COST16011_region.fa'
p24
aS'--candidate-output-file'
p25
aS'/home/eblake/Documents/manta/SV_finder_manta/MantaWorkflow/workspace/svHyGen/candidateSV.0000.vcf'
p26
aS'--diploid-output-file'
p27
aS'/home/eblake/Documents/manta/SV_finder_manta/MantaWorkflow/workspace/svHyGen/diploidSV.0000.vcf'
p28
aS'--min-qual-score'
p29
aS'10'
p30
aS'--min-pass-qual-score'
p31
aS'20'
p32
aS'--min-pass-gt-score'
p33
aS'15'
p34
aS'--enable-remote-read-retrieval'
p35
aS'--chrom-depth'
p36
aS'/home/eblake/Documents/manta/SV_finder_manta/MantaWorkflow/workspace/chromDepth.txt'
p37
aS'--edge-runtime-log'
p38
aS'/home/eblake/Documents/manta/SV_finder_manta/MantaWorkflow/workspace/svHyGen/edgeRuntimeLog.0000.txt'
p39
aS'--edge-stats-log'
p40
aS'/home/eblake/Documents/manta/SV_finder_manta/MantaWorkflow/results/stats/svCandidateGenerationStats.xml'
p41
aS'--edge-stats-report'
p42
aS'/home/eblake/Documents/manta/SV_finder_manta/MantaWorkflow/results/stats/svCandidateGenerationStats.tsv'
p43
aS'--align-file'
p44
aS'/home/eblake/Documents/manta/SV_finder_manta/Data/Data_to_analysis/G15512.HCC1954.1.COST16011_region.bam'
p45
asS'errFile'
p46
S'/home/eblake/Documents/manta/SV_finder_manta/MantaWorkflow/workspace/pyflow.data/logs/pyflow_tasks_stderr_log.txt'
p47
sS'outFile'
p48
S'/home/eblake/Documents/manta/SV_finder_manta/MantaWorkflow/workspace/pyflow.data/logs/pyflow_tasks_stdout_log.txt'
p49
sS'env'
p50
NsS'nCores'
p51
I8
sS'cwd'
p52
S''
p53
s.